; Function Attrs: nounwind sspstrong uwtable
define internal fastcc void @anddot_multiple_assignment_check(ptr noundef captures(none) %0, ptr noundef captures(address_is_null) %1, i64 noundef %2) unnamed_addr #0 {
  %4 = icmp eq i64 %2, 150
  br i1 %4, label %5, label %parser_yyerror.exit

5:                                                ; preds = %3
  tail call void (ptr, ptr, ptr, ...) @parser_compile_error(ptr noundef nonnull %0, ptr noundef nonnull %1, ptr noundef nonnull @.str.555, ptr noundef nonnull @.str.568)
  %6 = getelementptr inbounds nuw i8, ptr %0, i64 196
  %7 = load i32, ptr %6, align 4, !tbaa !31
  %8 = load i32, ptr %1, align 4, !tbaa !53
  %9 = icmp eq i32 %8, %7
  br i1 %9, label %10, label %parser_yyerror.exit

10:                                               ; preds = %5
  %11 = getelementptr inbounds nuw i8, ptr %0, i64 56
  %12 = load ptr, ptr %11, align 8, !tbaa !185
  %13 = getelementptr inbounds nuw i8, ptr %0, i64 368
  %14 = load i64, ptr %13, align 8, !tbaa !186
  tail call void @ruby_show_error_line(ptr nonnull readonly poison, i64 noundef %14, ptr noundef nonnull %1, i32 noundef %7, ptr noundef %12)
  br label %parser_yyerror.exit

parser_yyerror.exit:                              ; preds = %10, %5, %3
  ret void
}